target datalayout = "e-m:e-p270:32:32-p271:32:32-p272:64:64-i64:64-i128:128-f80:128-n8:16:32:64-S128"
target triple = "x86_64-pc-linux-gnu"

%struct._GtkTreeIter = type { i32, ptr, ptr, ptr }
%struct.sview_job_info_t = type { i32, %struct._GtkTreeIter, i8, i32, ptr, ptr, i32, ptr, i32, ptr, ptr, ptr, ptr, ptr, ptr, ptr }

; Function Attrs: nounwind uwtable
define internal void @_job_info_free(ptr noundef %0) #0 {
  %2 = alloca ptr, align 8
  store ptr %0, ptr %2, align 8
  %3 = load ptr, ptr %2, align 8
  %4 = icmp ne ptr %3, null
  br i1 %4, label %5, label %79

5:                                                ; preds = %1
  %6 = load ptr, ptr %2, align 8
  %7 = getelementptr inbounds nuw %struct.sview_job_info_t, ptr %6, i32 0, i32 4
  call void @slurm_xfree(ptr noundef %7)
  %8 = load ptr, ptr %2, align 8
  %9 = getelementptr inbounds nuw %struct.sview_job_info_t, ptr %8, i32 0, i32 7
  call void @slurm_xfree(ptr noundef %9)
  br label %10

10:                                               ; preds = %5
  %11 = load ptr, ptr %2, align 8
  %12 = getelementptr inbounds nuw %struct.sview_job_info_t, ptr %11, i32 0, i32 9
  %13 = load ptr, ptr %12, align 8
  %14 = icmp ne ptr %13, null
  br i1 %14, label %15, label %19

15:                                               ; preds = %10
  %16 = load ptr, ptr %2, align 8
  %17 = getelementptr inbounds nuw %struct.sview_job_info_t, ptr %16, i32 0, i32 9
  %18 = load ptr, ptr %17, align 8
  call void @list_destroy(ptr noundef %18)
  br label %19

19:                                               ; preds = %15, %10
  %20 = load ptr, ptr %2, align 8
  %21 = getelementptr inbounds nuw %struct.sview_job_info_t, ptr %20, i32 0, i32 9
  store ptr null, ptr %21, align 8
  br label %22

22:                                               ; preds = %19
  br label %23

23:                                               ; preds = %22
  %24 = load ptr, ptr %2, align 8
  %25 = getelementptr inbounds nuw %struct.sview_job_info_t, ptr %24, i32 0, i32 14
  %26 = load ptr, ptr %25, align 8
  %27 = icmp ne ptr %26, null
  br i1 %27, label %28, label %32

28:                                               ; preds = %23
  %29 = load ptr, ptr %2, align 8
  %30 = getelementptr inbounds nuw %struct.sview_job_info_t, ptr %29, i32 0, i32 14
  %31 = load ptr, ptr %30, align 8
  call void @list_destroy(ptr noundef %31)
  br label %32

32:                                               ; preds = %28, %23
  %33 = load ptr, ptr %2, align 8
  %34 = getelementptr inbounds nuw %struct.sview_job_info_t, ptr %33, i32 0, i32 14
  store ptr null, ptr %34, align 8
  br label %35

35:                                               ; preds = %32
  br label %36

36:                                               ; preds = %35
  %37 = load ptr, ptr %2, align 8
  %38 = getelementptr inbounds nuw %struct.sview_job_info_t, ptr %37, i32 0, i32 15
  %39 = load ptr, ptr %38, align 8
  %40 = icmp ne ptr %39, null
  br i1 %40, label %41, label %45

41:                                               ; preds = %36
  %42 = load ptr, ptr %2, align 8
  %43 = getelementptr inbounds nuw %struct.sview_job_info_t, ptr %42, i32 0, i32 15
  %44 = load ptr, ptr %43, align 8
  call void @list_destroy(ptr noundef %44)
  br label %45

45:                                               ; preds = %41, %36
  %46 = load ptr, ptr %2, align 8
  %47 = getelementptr inbounds nuw %struct.sview_job_info_t, ptr %46, i32 0, i32 15
  store ptr null, ptr %47, align 8
  br label %48

48:                                               ; preds = %45
  %49 = load ptr, ptr %2, align 8
  %50 = getelementptr inbounds nuw %struct.sview_job_info_t, ptr %49, i32 0, i32 11
  call void @slurm_xfree(ptr noundef %50)
  %51 = load ptr, ptr %2, align 8
  %52 = getelementptr inbounds nuw %struct.sview_job_info_t, ptr %51, i32 0, i32 13
  call void @slurm_xfree(ptr noundef %52)
  br label %53

53:                                               ; preds = %48
  %54 = load ptr, ptr %2, align 8
  %55 = getelementptr inbounds nuw %struct.sview_job_info_t, ptr %54, i32 0, i32 10
  %56 = load ptr, ptr %55, align 8
  %57 = icmp ne ptr %56, null
  br i1 %57, label %58, label %62

58:                                               ; preds = %53
  %59 = load ptr, ptr %2, align 8
  %60 = getelementptr inbounds nuw %struct.sview_job_info_t, ptr %59, i32 0, i32 10
  %61 = load ptr, ptr %60, align 8
  call void @hostlist_destroy(ptr noundef %61)
  br label %62

62:                                               ; preds = %58, %53
  %63 = load ptr, ptr %2, align 8
  %64 = getelementptr inbounds nuw %struct.sview_job_info_t, ptr %63, i32 0, i32 10
  store ptr null, ptr %64, align 8
  br label %65

65:                                               ; preds = %62
  br label %66

66:                                               ; preds = %65
  %67 = load ptr, ptr %2, align 8
  %68 = getelementptr inbounds nuw %struct.sview_job_info_t, ptr %67, i32 0, i32 12
  %69 = load ptr, ptr %68, align 8
  %70 = icmp ne ptr %69, null
  br i1 %70, label %71, label %75

71:                                               ; preds = %66
  %72 = load ptr, ptr %2, align 8
  %73 = getelementptr inbounds nuw %struct.sview_job_info_t, ptr %72, i32 0, i32 12
  %74 = load ptr, ptr %73, align 8
  call void @hostlist_destroy(ptr noundef %74)
  br label %75

75:                                               ; preds = %71, %66
  %76 = load ptr, ptr %2, align 8
  %77 = getelementptr inbounds nuw %struct.sview_job_info_t, ptr %76, i32 0, i32 12
  store ptr null, ptr %77, align 8
  br label %78

78:                                               ; preds = %75
  br label %79

79:                                               ; preds = %78, %1
  ret void
}