; Function Attrs: nounwind uwtable
define internal fastcc void @_job_info_free(ptr noundef nonnull %0) unnamed_addr #0 {
  %2 = getelementptr inbounds nuw i8, ptr %0, i64 48
  tail call void @slurm_xfree(ptr noundef nonnull %2) #16
  %3 = getelementptr inbounds nuw i8, ptr %0, i64 72
  tail call void @slurm_xfree(ptr noundef nonnull %3) #16
  %4 = getelementptr inbounds nuw i8, ptr %0, i64 88
  %5 = load ptr, ptr %4, align 8
  %.not = icmp eq ptr %5, null
  br i1 %.not, label %7, label %6

6:                                                ; preds = %1
  tail call void @list_destroy(ptr noundef nonnull %5) #16
  br label %7

7:                                                ; preds = %6, %1
  store ptr null, ptr %4, align 8
  %8 = getelementptr inbounds nuw i8, ptr %0, i64 128
  %9 = load ptr, ptr %8, align 8
  %.not25 = icmp eq ptr %9, null
  br i1 %.not25, label %11, label %10

10:                                               ; preds = %7
  tail call void @list_destroy(ptr noundef nonnull %9) #16
  br label %11

11:                                               ; preds = %10, %7
  store ptr null, ptr %8, align 8
  %12 = getelementptr inbounds nuw i8, ptr %0, i64 136
  %13 = load ptr, ptr %12, align 8
  %.not26 = icmp eq ptr %13, null
  br i1 %.not26, label %15, label %14

14:                                               ; preds = %11
  tail call void @list_destroy(ptr noundef nonnull %13) #16
  br label %15

15:                                               ; preds = %14, %11
  store ptr null, ptr %12, align 8
  %16 = getelementptr inbounds nuw i8, ptr %0, i64 104
  tail call void @slurm_xfree(ptr noundef nonnull %16) #16
  %17 = getelementptr inbounds nuw i8, ptr %0, i64 120
  tail call void @slurm_xfree(ptr noundef nonnull %17) #16
  %18 = getelementptr inbounds nuw i8, ptr %0, i64 96
  %19 = load ptr, ptr %18, align 8
  %.not27 = icmp eq ptr %19, null
  br i1 %.not27, label %21, label %20

20:                                               ; preds = %15
  tail call void @hostlist_destroy(ptr noundef nonnull %19) #16
  br label %21

21:                                               ; preds = %20, %15
  store ptr null, ptr %18, align 8
  %22 = getelementptr inbounds nuw i8, ptr %0, i64 112
  %23 = load ptr, ptr %22, align 8
  %.not28 = icmp eq ptr %23, null
  br i1 %.not28, label %25, label %24

24:                                               ; preds = %21
  tail call void @hostlist_destroy(ptr noundef nonnull %23) #16
  br label %25

25:                                               ; preds = %24, %21
  store ptr null, ptr %22, align 8
  ret void
}